
code.elf:     file format elf32-avr


Disassembly of section .text:

00000000 <__vectors>:
   0:	0c 94 24 01 	jmp	0x248	; 0x248 <__ctors_end>
   4:	0c 94 41 01 	jmp	0x282	; 0x282 <__bad_interrupt>
   8:	0c 94 41 01 	jmp	0x282	; 0x282 <__bad_interrupt>
   c:	0c 94 41 01 	jmp	0x282	; 0x282 <__bad_interrupt>
  10:	0c 94 41 01 	jmp	0x282	; 0x282 <__bad_interrupt>
  14:	0c 94 41 01 	jmp	0x282	; 0x282 <__bad_interrupt>
  18:	0c 94 41 01 	jmp	0x282	; 0x282 <__bad_interrupt>
  1c:	0c 94 41 01 	jmp	0x282	; 0x282 <__bad_interrupt>
  20:	0c 94 41 01 	jmp	0x282	; 0x282 <__bad_interrupt>
  24:	0c 94 41 01 	jmp	0x282	; 0x282 <__bad_interrupt>
  28:	0c 94 41 01 	jmp	0x282	; 0x282 <__bad_interrupt>
  2c:	0c 94 43 01 	jmp	0x286	; 0x286 <__vector_11>
  30:	0c 94 41 01 	jmp	0x282	; 0x282 <__bad_interrupt>
  34:	0c 94 41 01 	jmp	0x282	; 0x282 <__bad_interrupt>
  38:	0c 94 41 01 	jmp	0x282	; 0x282 <__bad_interrupt>
  3c:	0c 94 41 01 	jmp	0x282	; 0x282 <__bad_interrupt>
  40:	0c 94 41 01 	jmp	0x282	; 0x282 <__bad_interrupt>
  44:	0c 94 41 01 	jmp	0x282	; 0x282 <__bad_interrupt>
  48:	0c 94 41 01 	jmp	0x282	; 0x282 <__bad_interrupt>
  4c:	0c 94 41 01 	jmp	0x282	; 0x282 <__bad_interrupt>
  50:	0c 94 41 01 	jmp	0x282	; 0x282 <__bad_interrupt>
  54:	0c 94 41 01 	jmp	0x282	; 0x282 <__bad_interrupt>
  58:	0c 94 41 01 	jmp	0x282	; 0x282 <__bad_interrupt>
  5c:	0c 94 41 01 	jmp	0x282	; 0x282 <__bad_interrupt>
  60:	0c 94 41 01 	jmp	0x282	; 0x282 <__bad_interrupt>
  64:	0c 94 41 01 	jmp	0x282	; 0x282 <__bad_interrupt>

00000068 <CHARSET>:
  68:	00 00 00 00 00 00 00 5f 00 00 00 07 00 07 00 14     ......._........
  78:	7f 14 7f 14 24 2a 7f 2a 12 23 13 08 64 62 36 49     ....$*.*.#..db6I
  88:	55 22 50 00 05 03 00 00 00 1c 22 41 00 00 41 22     U"P......."A..A"
  98:	1c 00 14 08 3e 08 14 08 08 3e 08 08 00 50 30 00     ....>....>...P0.
  a8:	00 08 08 08 08 08 00 60 60 00 00 20 10 08 04 02     .......``.. ....
  b8:	3e 51 49 45 3e 00 42 7f 40 00 42 61 51 49 46 21     >QIE>.B.@.BaQIF!
  c8:	41 45 4b 31 18 14 12 7f 10 27 45 45 45 39 3c 4a     AEK1.....'EEE9<J
  d8:	49 49 30 01 71 09 05 03 36 49 49 49 36 06 49 49     II0.q...6III6.II
  e8:	29 1e 00 36 36 00 00 00 56 36 00 00 08 14 22 41     )..66...V6...."A
  f8:	00 14 14 14 14 14 00 41 22 14 08 02 01 51 09 06     .......A"....Q..
 108:	32 49 79 41 3e 7e 11 11 11 7e 7f 49 49 49 36 3e     2IyA>~...~.III6>
 118:	41 41 41 22 7f 41 41 22 1c 7f 49 49 49 41 7f 09     AAA".AA"..IIIA..
 128:	09 09 01 3e 41 49 49 7a 7f 08 08 08 7f 00 41 7f     ...>AIIz......A.
 138:	41 00 20 40 41 3f 01 7f 08 14 22 41 7f 40 40 40     A. @A?...."A.@@@
 148:	40 7f 02 0c 02 7f 7f 04 08 10 7f 3e 41 41 41 3e     @..........>AAA>
 158:	7f 09 09 09 06 3e 41 51 21 5e 7f 09 19 29 46 46     .....>AQ!^...)FF
 168:	49 49 49 31 01 01 7f 01 01 3f 40 40 40 3f 1f 20     III1.....?@@@?. 
 178:	40 20 1f 3f 40 38 40 3f 63 14 08 14 63 07 08 70     @ .?@8@?c...c..p
 188:	08 07 61 51 49 45 43 00 7f 41 41 00 02 04 08 10     ..aQIEC..AA.....
 198:	20 00 41 41 7f 00 04 02 01 02 04 40 40 40 40 40      .AA.......@@@@@
 1a8:	00 01 02 04 00 20 54 54 54 78 7f 48 44 44 38 38     ..... TTTx.HDD88
 1b8:	44 44 44 20 38 44 44 48 7f 38 54 54 54 18 08 7e     DDD 8DDH.8TTT..~
 1c8:	09 01 02 0c 52 52 52 3e 7f 08 04 04 78 00 44 7d     ....RRR>....x.D}
 1d8:	40 00 20 40 44 3d 00 7f 10 28 44 00 00 41 7f 40     @. @D=...(D..A.@
 1e8:	00 7c 04 18 04 78 7c 08 04 04 78 38 44 44 44 38     .|...x|...x8DDD8
 1f8:	7c 14 14 14 08 08 14 14 18 7c 7c 08 04 04 08 48     |........||....H
 208:	54 54 54 20 04 3f 44 40 20 3c 40 40 20 7c 1c 20     TTT .?D@ <@@ |. 
 218:	40 20 1c 3c 40 30 40 3c 44 28 10 28 44 0c 50 50     @ .<@0@<D(.(D.PP
 228:	50 3c 44 64 54 4c 44 00 08 36 41 00 00 00 7f 00     P<DdTLD..6A.....
 238:	00 00 41 36 08 00 10 08 08 10 08 00 00 00 00 00     ..A6............

00000248 <__ctors_end>:
 248:	11 24       	eor	r1, r1
 24a:	1f be       	out	0x3f, r1	; 63
 24c:	cf ef       	ldi	r28, 0xFF	; 255
 24e:	d8 e0       	ldi	r29, 0x08	; 8
 250:	de bf       	out	0x3e, r29	; 62
 252:	cd bf       	out	0x3d, r28	; 61

00000254 <__do_copy_data>:
 254:	11 e0       	ldi	r17, 0x01	; 1
 256:	a0 e0       	ldi	r26, 0x00	; 0
 258:	b1 e0       	ldi	r27, 0x01	; 1
 25a:	ee ef       	ldi	r30, 0xFE	; 254
 25c:	fc e0       	ldi	r31, 0x0C	; 12
 25e:	02 c0       	rjmp	.+4      	; 0x264 <__do_copy_data+0x10>
 260:	05 90       	lpm	r0, Z+
 262:	0d 92       	st	X+, r0
 264:	ae 31       	cpi	r26, 0x1E	; 30
 266:	b1 07       	cpc	r27, r17
 268:	d9 f7       	brne	.-10     	; 0x260 <__do_copy_data+0xc>

0000026a <__do_clear_bss>:
 26a:	23 e0       	ldi	r18, 0x03	; 3
 26c:	ae e1       	ldi	r26, 0x1E	; 30
 26e:	b1 e0       	ldi	r27, 0x01	; 1
 270:	01 c0       	rjmp	.+2      	; 0x274 <.do_clear_bss_start>

00000272 <.do_clear_bss_loop>:
 272:	1d 92       	st	X+, r1

00000274 <.do_clear_bss_start>:
 274:	ac 35       	cpi	r26, 0x5C	; 92
 276:	b2 07       	cpc	r27, r18
 278:	e1 f7       	brne	.-8      	; 0x272 <.do_clear_bss_loop>
 27a:	0e 94 41 04 	call	0x882	; 0x882 <main>
 27e:	0c 94 7d 06 	jmp	0xcfa	; 0xcfa <_exit>

00000282 <__bad_interrupt>:
 282:	0c 94 00 00 	jmp	0	; 0x0 <__vectors>

00000286 <__vector_11>:
 286:	1f 92       	push	r1
 288:	0f 92       	push	r0
 28a:	0f b6       	in	r0, 0x3f	; 63
 28c:	0f 92       	push	r0
 28e:	11 24       	eor	r1, r1
 290:	8f 93       	push	r24
 292:	9f 93       	push	r25
 294:	80 91 1a 03 	lds	r24, 0x031A	; 0x80031a <interrupt>
 298:	90 91 1b 03 	lds	r25, 0x031B	; 0x80031b <interrupt+0x1>
 29c:	01 96       	adiw	r24, 0x01	; 1
 29e:	8a 30       	cpi	r24, 0x0A	; 10
 2a0:	91 05       	cpc	r25, r1
 2a2:	2c f4       	brge	.+10     	; 0x2ae <__vector_11+0x28>
 2a4:	90 93 1b 03 	sts	0x031B, r25	; 0x80031b <interrupt+0x1>
 2a8:	80 93 1a 03 	sts	0x031A, r24	; 0x80031a <interrupt>
 2ac:	0d c0       	rjmp	.+26     	; 0x2c8 <__vector_11+0x42>
 2ae:	10 92 1b 03 	sts	0x031B, r1	; 0x80031b <interrupt+0x1>
 2b2:	10 92 1a 03 	sts	0x031A, r1	; 0x80031a <interrupt>
 2b6:	80 91 18 03 	lds	r24, 0x0318	; 0x800318 <timer>
 2ba:	90 91 19 03 	lds	r25, 0x0319	; 0x800319 <timer+0x1>
 2be:	01 96       	adiw	r24, 0x01	; 1
 2c0:	90 93 19 03 	sts	0x0319, r25	; 0x800319 <timer+0x1>
 2c4:	80 93 18 03 	sts	0x0318, r24	; 0x800318 <timer>
 2c8:	9f 91       	pop	r25
 2ca:	8f 91       	pop	r24
 2cc:	0f 90       	pop	r0
 2ce:	0f be       	out	0x3f, r0	; 63
 2d0:	0f 90       	pop	r0
 2d2:	1f 90       	pop	r1
 2d4:	18 95       	reti

000002d6 <interface>:
 2d6:	08 95       	ret

000002d8 <game_over>:
 2d8:	0e 94 d9 01 	call	0x3b2	; 0x3b2 <nokia_lcd_clear>
 2dc:	6c e0       	ldi	r22, 0x0C	; 12
 2de:	80 e0       	ldi	r24, 0x00	; 0
 2e0:	0e 94 ce 02 	call	0x59c	; 0x59c <nokia_lcd_set_cursor>
 2e4:	62 e0       	ldi	r22, 0x02	; 2
 2e6:	85 e0       	ldi	r24, 0x05	; 5
 2e8:	91 e0       	ldi	r25, 0x01	; 1
 2ea:	0c 94 be 02 	jmp	0x57c	; 0x57c <nokia_lcd_write_string>

000002ee <write>:
 2ee:	40 98       	cbi	0x08, 0	; 8
 2f0:	66 23       	and	r22, r22
 2f2:	11 f0       	breq	.+4      	; 0x2f8 <write+0xa>
 2f4:	42 9a       	sbi	0x08, 2	; 8
 2f6:	01 c0       	rjmp	.+2      	; 0x2fa <write+0xc>
 2f8:	42 98       	cbi	0x08, 2	; 8
 2fa:	27 e0       	ldi	r18, 0x07	; 7
 2fc:	30 e0       	ldi	r19, 0x00	; 0
 2fe:	90 e0       	ldi	r25, 0x00	; 0
 300:	ac 01       	movw	r20, r24
 302:	02 2e       	mov	r0, r18
 304:	02 c0       	rjmp	.+4      	; 0x30a <write+0x1c>
 306:	55 95       	asr	r21
 308:	47 95       	ror	r20
 30a:	0a 94       	dec	r0
 30c:	e2 f7       	brpl	.-8      	; 0x306 <write+0x18>
 30e:	40 ff       	sbrs	r20, 0
 310:	02 c0       	rjmp	.+4      	; 0x316 <write+0x28>
 312:	43 9a       	sbi	0x08, 3	; 8
 314:	01 c0       	rjmp	.+2      	; 0x318 <write+0x2a>
 316:	43 98       	cbi	0x08, 3	; 8
 318:	44 9a       	sbi	0x08, 4	; 8
 31a:	44 98       	cbi	0x08, 4	; 8
 31c:	21 50       	subi	r18, 0x01	; 1
 31e:	31 09       	sbc	r19, r1
 320:	78 f7       	brcc	.-34     	; 0x300 <write+0x12>
 322:	40 9a       	sbi	0x08, 0	; 8
 324:	08 95       	ret

00000326 <write_cmd>:
 326:	60 e0       	ldi	r22, 0x00	; 0
 328:	0c 94 77 01 	jmp	0x2ee	; 0x2ee <write>

0000032c <nokia_lcd_init>:
 32c:	cf 93       	push	r28
 32e:	df 93       	push	r29
 330:	38 9a       	sbi	0x07, 0	; 7
 332:	39 9a       	sbi	0x07, 1	; 7
 334:	3a 9a       	sbi	0x07, 2	; 7
 336:	3b 9a       	sbi	0x07, 3	; 7
 338:	3c 9a       	sbi	0x07, 4	; 7
 33a:	41 9a       	sbi	0x08, 1	; 8
 33c:	40 9a       	sbi	0x08, 0	; 8
 33e:	8f e3       	ldi	r24, 0x3F	; 63
 340:	9c e9       	ldi	r25, 0x9C	; 156
 342:	01 97       	sbiw	r24, 0x01	; 1
 344:	f1 f7       	brne	.-4      	; 0x342 <nokia_lcd_init+0x16>
 346:	00 c0       	rjmp	.+0      	; 0x348 <nokia_lcd_init+0x1c>
 348:	00 00       	nop
 34a:	41 98       	cbi	0x08, 1	; 8
 34c:	9f ef       	ldi	r25, 0xFF	; 255
 34e:	2a e6       	ldi	r18, 0x6A	; 106
 350:	83 e0       	ldi	r24, 0x03	; 3
 352:	91 50       	subi	r25, 0x01	; 1
 354:	20 40       	sbci	r18, 0x00	; 0
 356:	80 40       	sbci	r24, 0x00	; 0
 358:	e1 f7       	brne	.-8      	; 0x352 <nokia_lcd_init+0x26>
 35a:	00 c0       	rjmp	.+0      	; 0x35c <nokia_lcd_init+0x30>
 35c:	00 00       	nop
 35e:	41 9a       	sbi	0x08, 1	; 8
 360:	40 98       	cbi	0x08, 0	; 8
 362:	81 e2       	ldi	r24, 0x21	; 33
 364:	0e 94 93 01 	call	0x326	; 0x326 <write_cmd>
 368:	83 e1       	ldi	r24, 0x13	; 19
 36a:	0e 94 93 01 	call	0x326	; 0x326 <write_cmd>
 36e:	86 e0       	ldi	r24, 0x06	; 6
 370:	0e 94 93 01 	call	0x326	; 0x326 <write_cmd>
 374:	82 ec       	ldi	r24, 0xC2	; 194
 376:	0e 94 93 01 	call	0x326	; 0x326 <write_cmd>
 37a:	80 e2       	ldi	r24, 0x20	; 32
 37c:	0e 94 93 01 	call	0x326	; 0x326 <write_cmd>
 380:	89 e0       	ldi	r24, 0x09	; 9
 382:	0e 94 93 01 	call	0x326	; 0x326 <write_cmd>
 386:	80 e8       	ldi	r24, 0x80	; 128
 388:	0e 94 93 01 	call	0x326	; 0x326 <write_cmd>
 38c:	80 e4       	ldi	r24, 0x40	; 64
 38e:	0e 94 93 01 	call	0x326	; 0x326 <write_cmd>
 392:	c8 ef       	ldi	r28, 0xF8	; 248
 394:	d1 e0       	ldi	r29, 0x01	; 1
 396:	61 e0       	ldi	r22, 0x01	; 1
 398:	80 e0       	ldi	r24, 0x00	; 0
 39a:	0e 94 77 01 	call	0x2ee	; 0x2ee <write>
 39e:	21 97       	sbiw	r28, 0x01	; 1
 3a0:	d1 f7       	brne	.-12     	; 0x396 <nokia_lcd_init+0x6a>
 3a2:	88 e0       	ldi	r24, 0x08	; 8
 3a4:	0e 94 93 01 	call	0x326	; 0x326 <write_cmd>
 3a8:	8c e0       	ldi	r24, 0x0C	; 12
 3aa:	df 91       	pop	r29
 3ac:	cf 91       	pop	r28
 3ae:	0c 94 93 01 	jmp	0x326	; 0x326 <write_cmd>

000003b2 <nokia_lcd_clear>:
 3b2:	80 e8       	ldi	r24, 0x80	; 128
 3b4:	0e 94 93 01 	call	0x326	; 0x326 <write_cmd>
 3b8:	80 e4       	ldi	r24, 0x40	; 64
 3ba:	0e 94 93 01 	call	0x326	; 0x326 <write_cmd>
 3be:	10 92 16 03 	sts	0x0316, r1	; 0x800316 <__data_end+0x1f8>
 3c2:	10 92 17 03 	sts	0x0317, r1	; 0x800317 <__data_end+0x1f9>
 3c6:	88 ef       	ldi	r24, 0xF8	; 248
 3c8:	91 e0       	ldi	r25, 0x01	; 1
 3ca:	ee e1       	ldi	r30, 0x1E	; 30
 3cc:	f1 e0       	ldi	r31, 0x01	; 1
 3ce:	df 01       	movw	r26, r30
 3d0:	9c 01       	movw	r18, r24
 3d2:	1d 92       	st	X+, r1
 3d4:	21 50       	subi	r18, 0x01	; 1
 3d6:	30 40       	sbci	r19, 0x00	; 0
 3d8:	e1 f7       	brne	.-8      	; 0x3d2 <nokia_lcd_clear+0x20>
 3da:	08 95       	ret

000003dc <nokia_lcd_power>:
 3dc:	81 11       	cpse	r24, r1
 3de:	02 c0       	rjmp	.+4      	; 0x3e4 <nokia_lcd_power+0x8>
 3e0:	84 e2       	ldi	r24, 0x24	; 36
 3e2:	01 c0       	rjmp	.+2      	; 0x3e6 <nokia_lcd_power+0xa>
 3e4:	80 e2       	ldi	r24, 0x20	; 32
 3e6:	0c 94 93 01 	jmp	0x326	; 0x326 <write_cmd>

000003ea <nokia_lcd_set_pixel>:
 3ea:	96 2f       	mov	r25, r22
 3ec:	96 95       	lsr	r25
 3ee:	96 95       	lsr	r25
 3f0:	96 95       	lsr	r25
 3f2:	e8 2f       	mov	r30, r24
 3f4:	f0 e0       	ldi	r31, 0x00	; 0
 3f6:	84 e5       	ldi	r24, 0x54	; 84
 3f8:	98 9f       	mul	r25, r24
 3fa:	e0 0d       	add	r30, r0
 3fc:	f1 1d       	adc	r31, r1
 3fe:	11 24       	eor	r1, r1
 400:	e2 5e       	subi	r30, 0xE2	; 226
 402:	fe 4f       	sbci	r31, 0xFE	; 254
 404:	67 70       	andi	r22, 0x07	; 7
 406:	81 e0       	ldi	r24, 0x01	; 1
 408:	90 e0       	ldi	r25, 0x00	; 0
 40a:	01 c0       	rjmp	.+2      	; 0x40e <__EEPROM_REGION_LENGTH__+0xe>
 40c:	88 0f       	add	r24, r24
 40e:	6a 95       	dec	r22
 410:	ea f7       	brpl	.-6      	; 0x40c <__EEPROM_REGION_LENGTH__+0xc>
 412:	44 23       	and	r20, r20
 414:	19 f0       	breq	.+6      	; 0x41c <__EEPROM_REGION_LENGTH__+0x1c>
 416:	90 81       	ld	r25, Z
 418:	89 2b       	or	r24, r25
 41a:	03 c0       	rjmp	.+6      	; 0x422 <__EEPROM_REGION_LENGTH__+0x22>
 41c:	80 95       	com	r24
 41e:	90 81       	ld	r25, Z
 420:	89 23       	and	r24, r25
 422:	80 83       	st	Z, r24
 424:	08 95       	ret

00000426 <nokia_lcd_write_char>:
 426:	8f 92       	push	r8
 428:	9f 92       	push	r9
 42a:	af 92       	push	r10
 42c:	bf 92       	push	r11
 42e:	df 92       	push	r13
 430:	ef 92       	push	r14
 432:	ff 92       	push	r15
 434:	0f 93       	push	r16
 436:	1f 93       	push	r17
 438:	cf 93       	push	r28
 43a:	df 93       	push	r29
 43c:	00 d0       	rcall	.+0      	; 0x43e <nokia_lcd_write_char+0x18>
 43e:	00 d0       	rcall	.+0      	; 0x440 <nokia_lcd_write_char+0x1a>
 440:	1f 92       	push	r1
 442:	cd b7       	in	r28, 0x3d	; 61
 444:	de b7       	in	r29, 0x3e	; 62
 446:	f6 2e       	mov	r15, r22
 448:	28 2f       	mov	r18, r24
 44a:	08 2e       	mov	r0, r24
 44c:	00 0c       	add	r0, r0
 44e:	33 0b       	sbc	r19, r19
 450:	80 32       	cpi	r24, 0x20	; 32
 452:	6c f0       	brlt	.+26     	; 0x46e <nokia_lcd_write_char+0x48>
 454:	20 52       	subi	r18, 0x20	; 32
 456:	31 09       	sbc	r19, r1
 458:	85 e0       	ldi	r24, 0x05	; 5
 45a:	82 9f       	mul	r24, r18
 45c:	b0 01       	movw	r22, r0
 45e:	83 9f       	mul	r24, r19
 460:	70 0d       	add	r23, r0
 462:	11 24       	eor	r1, r1
 464:	68 59       	subi	r22, 0x98	; 152
 466:	7f 4f       	sbci	r23, 0xFF	; 255
 468:	45 e0       	ldi	r20, 0x05	; 5
 46a:	50 e0       	ldi	r21, 0x00	; 0
 46c:	0e c0       	rjmp	.+28     	; 0x48a <nokia_lcd_write_char+0x64>
 46e:	22 0f       	add	r18, r18
 470:	33 1f       	adc	r19, r19
 472:	f9 01       	movw	r30, r18
 474:	e4 5e       	subi	r30, 0xE4	; 228
 476:	fc 4f       	sbci	r31, 0xFC	; 252
 478:	00 81       	ld	r16, Z
 47a:	11 81       	ldd	r17, Z+1	; 0x01
 47c:	01 15       	cp	r16, r1
 47e:	11 05       	cpc	r17, r1
 480:	59 f4       	brne	.+22     	; 0x498 <nokia_lcd_write_char+0x72>
 482:	45 e0       	ldi	r20, 0x05	; 5
 484:	50 e0       	ldi	r21, 0x00	; 0
 486:	68 e6       	ldi	r22, 0x68	; 104
 488:	70 e0       	ldi	r23, 0x00	; 0
 48a:	ce 01       	movw	r24, r28
 48c:	01 96       	adiw	r24, 0x01	; 1
 48e:	0e 94 74 06 	call	0xce8	; 0xce8 <memcpy_P>
 492:	8e 01       	movw	r16, r28
 494:	0f 5f       	subi	r16, 0xFF	; 255
 496:	1f 4f       	sbci	r17, 0xFF	; 255
 498:	85 e0       	ldi	r24, 0x05	; 5
 49a:	f8 9e       	mul	r15, r24
 49c:	50 01       	movw	r10, r0
 49e:	11 24       	eor	r1, r1
 4a0:	97 e0       	ldi	r25, 0x07	; 7
 4a2:	f9 9e       	mul	r15, r25
 4a4:	40 01       	movw	r8, r0
 4a6:	11 24       	eor	r1, r1
 4a8:	d1 2c       	mov	r13, r1
 4aa:	8d 2d       	mov	r24, r13
 4ac:	90 e0       	ldi	r25, 0x00	; 0
 4ae:	8a 15       	cp	r24, r10
 4b0:	9b 05       	cpc	r25, r11
 4b2:	44 f5       	brge	.+80     	; 0x504 <nokia_lcd_write_char+0xde>
 4b4:	e1 2c       	mov	r14, r1
 4b6:	8e 2d       	mov	r24, r14
 4b8:	90 e0       	ldi	r25, 0x00	; 0
 4ba:	88 15       	cp	r24, r8
 4bc:	99 05       	cpc	r25, r9
 4be:	04 f5       	brge	.+64     	; 0x500 <nokia_lcd_write_char+0xda>
 4c0:	8d 2d       	mov	r24, r13
 4c2:	6f 2d       	mov	r22, r15
 4c4:	0e 94 a3 04 	call	0x946	; 0x946 <__udivmodqi4>
 4c8:	f8 01       	movw	r30, r16
 4ca:	e8 0f       	add	r30, r24
 4cc:	f1 1d       	adc	r31, r1
 4ce:	20 81       	ld	r18, Z
 4d0:	30 e0       	ldi	r19, 0x00	; 0
 4d2:	8e 2d       	mov	r24, r14
 4d4:	0e 94 a3 04 	call	0x946	; 0x946 <__udivmodqi4>
 4d8:	02 c0       	rjmp	.+4      	; 0x4de <nokia_lcd_write_char+0xb8>
 4da:	35 95       	asr	r19
 4dc:	27 95       	ror	r18
 4de:	8a 95       	dec	r24
 4e0:	e2 f7       	brpl	.-8      	; 0x4da <nokia_lcd_write_char+0xb4>
 4e2:	60 91 17 03 	lds	r22, 0x0317	; 0x800317 <__data_end+0x1f9>
 4e6:	80 91 16 03 	lds	r24, 0x0316	; 0x800316 <__data_end+0x1f8>
 4ea:	6e 0d       	add	r22, r14
 4ec:	20 ff       	sbrs	r18, 0
 4ee:	02 c0       	rjmp	.+4      	; 0x4f4 <nokia_lcd_write_char+0xce>
 4f0:	41 e0       	ldi	r20, 0x01	; 1
 4f2:	01 c0       	rjmp	.+2      	; 0x4f6 <nokia_lcd_write_char+0xd0>
 4f4:	40 e0       	ldi	r20, 0x00	; 0
 4f6:	8d 0d       	add	r24, r13
 4f8:	0e 94 f5 01 	call	0x3ea	; 0x3ea <nokia_lcd_set_pixel>
 4fc:	e3 94       	inc	r14
 4fe:	db cf       	rjmp	.-74     	; 0x4b6 <nokia_lcd_write_char+0x90>
 500:	d3 94       	inc	r13
 502:	d3 cf       	rjmp	.-90     	; 0x4aa <nokia_lcd_write_char+0x84>
 504:	80 91 16 03 	lds	r24, 0x0316	; 0x800316 <__data_end+0x1f8>
 508:	91 e0       	ldi	r25, 0x01	; 1
 50a:	98 0f       	add	r25, r24
 50c:	8f 2d       	mov	r24, r15
 50e:	88 0f       	add	r24, r24
 510:	88 0f       	add	r24, r24
 512:	8f 0d       	add	r24, r15
 514:	89 0f       	add	r24, r25
 516:	84 35       	cpi	r24, 0x54	; 84
 518:	18 f4       	brcc	.+6      	; 0x520 <nokia_lcd_write_char+0xfa>
 51a:	80 93 16 03 	sts	0x0316, r24	; 0x800316 <__data_end+0x1f8>
 51e:	0b c0       	rjmp	.+22     	; 0x536 <nokia_lcd_write_char+0x110>
 520:	10 92 16 03 	sts	0x0316, r1	; 0x800316 <__data_end+0x1f8>
 524:	80 91 17 03 	lds	r24, 0x0317	; 0x800317 <__data_end+0x1f9>
 528:	8f 5f       	subi	r24, 0xFF	; 255
 52a:	97 e0       	ldi	r25, 0x07	; 7
 52c:	f9 9e       	mul	r15, r25
 52e:	80 0d       	add	r24, r0
 530:	11 24       	eor	r1, r1
 532:	80 93 17 03 	sts	0x0317, r24	; 0x800317 <__data_end+0x1f9>
 536:	80 91 17 03 	lds	r24, 0x0317	; 0x800317 <__data_end+0x1f9>
 53a:	80 33       	cpi	r24, 0x30	; 48
 53c:	20 f0       	brcs	.+8      	; 0x546 <nokia_lcd_write_char+0x120>
 53e:	10 92 16 03 	sts	0x0316, r1	; 0x800316 <__data_end+0x1f8>
 542:	10 92 17 03 	sts	0x0317, r1	; 0x800317 <__data_end+0x1f9>
 546:	0f 90       	pop	r0
 548:	0f 90       	pop	r0
 54a:	0f 90       	pop	r0
 54c:	0f 90       	pop	r0
 54e:	0f 90       	pop	r0
 550:	df 91       	pop	r29
 552:	cf 91       	pop	r28
 554:	1f 91       	pop	r17
 556:	0f 91       	pop	r16
 558:	ff 90       	pop	r15
 55a:	ef 90       	pop	r14
 55c:	df 90       	pop	r13
 55e:	bf 90       	pop	r11
 560:	af 90       	pop	r10
 562:	9f 90       	pop	r9
 564:	8f 90       	pop	r8
 566:	08 95       	ret

00000568 <nokia_lcd_custom>:
 568:	80 32       	cpi	r24, 0x20	; 32
 56a:	3c f4       	brge	.+14     	; 0x57a <nokia_lcd_custom+0x12>
 56c:	e8 2f       	mov	r30, r24
 56e:	ee 0f       	add	r30, r30
 570:	ff 0b       	sbc	r31, r31
 572:	e4 5e       	subi	r30, 0xE4	; 228
 574:	fc 4f       	sbci	r31, 0xFC	; 252
 576:	71 83       	std	Z+1, r23	; 0x01
 578:	60 83       	st	Z, r22
 57a:	08 95       	ret

0000057c <nokia_lcd_write_string>:
 57c:	1f 93       	push	r17
 57e:	cf 93       	push	r28
 580:	df 93       	push	r29
 582:	16 2f       	mov	r17, r22
 584:	ec 01       	movw	r28, r24
 586:	89 91       	ld	r24, Y+
 588:	88 23       	and	r24, r24
 58a:	21 f0       	breq	.+8      	; 0x594 <nokia_lcd_write_string+0x18>
 58c:	61 2f       	mov	r22, r17
 58e:	0e 94 13 02 	call	0x426	; 0x426 <nokia_lcd_write_char>
 592:	f9 cf       	rjmp	.-14     	; 0x586 <nokia_lcd_write_string+0xa>
 594:	df 91       	pop	r29
 596:	cf 91       	pop	r28
 598:	1f 91       	pop	r17
 59a:	08 95       	ret

0000059c <nokia_lcd_set_cursor>:
 59c:	80 93 16 03 	sts	0x0316, r24	; 0x800316 <__data_end+0x1f8>
 5a0:	60 93 17 03 	sts	0x0317, r22	; 0x800317 <__data_end+0x1f9>
 5a4:	08 95       	ret

000005a6 <nokia_lcd_render>:
 5a6:	cf 93       	push	r28
 5a8:	df 93       	push	r29
 5aa:	80 e8       	ldi	r24, 0x80	; 128
 5ac:	0e 94 93 01 	call	0x326	; 0x326 <write_cmd>
 5b0:	80 e4       	ldi	r24, 0x40	; 64
 5b2:	0e 94 93 01 	call	0x326	; 0x326 <write_cmd>
 5b6:	ce e1       	ldi	r28, 0x1E	; 30
 5b8:	d1 e0       	ldi	r29, 0x01	; 1
 5ba:	61 e0       	ldi	r22, 0x01	; 1
 5bc:	89 91       	ld	r24, Y+
 5be:	0e 94 77 01 	call	0x2ee	; 0x2ee <write>
 5c2:	83 e0       	ldi	r24, 0x03	; 3
 5c4:	c6 31       	cpi	r28, 0x16	; 22
 5c6:	d8 07       	cpc	r29, r24
 5c8:	c1 f7       	brne	.-16     	; 0x5ba <nokia_lcd_render+0x14>
 5ca:	df 91       	pop	r29
 5cc:	cf 91       	pop	r28
 5ce:	08 95       	ret

000005d0 <nokia_lcd_drawline>:
 5d0:	4f 92       	push	r4
 5d2:	5f 92       	push	r5
 5d4:	6f 92       	push	r6
 5d6:	7f 92       	push	r7
 5d8:	8f 92       	push	r8
 5da:	9f 92       	push	r9
 5dc:	af 92       	push	r10
 5de:	bf 92       	push	r11
 5e0:	cf 92       	push	r12
 5e2:	df 92       	push	r13
 5e4:	ef 92       	push	r14
 5e6:	ff 92       	push	r15
 5e8:	cf 93       	push	r28
 5ea:	df 93       	push	r29
 5ec:	cd b7       	in	r28, 0x3d	; 61
 5ee:	de b7       	in	r29, 0x3e	; 62
 5f0:	2e 97       	sbiw	r28, 0x0e	; 14
 5f2:	0f b6       	in	r0, 0x3f	; 63
 5f4:	f8 94       	cli
 5f6:	de bf       	out	0x3e, r29	; 62
 5f8:	0f be       	out	0x3f, r0	; 63
 5fa:	cd bf       	out	0x3d, r28	; 61
 5fc:	8d 87       	std	Y+13, r24	; 0x0d
 5fe:	69 87       	std	Y+9, r22	; 0x09
 600:	f2 2e       	mov	r15, r18
 602:	64 2f       	mov	r22, r20
 604:	70 e0       	ldi	r23, 0x00	; 0
 606:	68 1b       	sub	r22, r24
 608:	71 09       	sbc	r23, r1
 60a:	07 2e       	mov	r0, r23
 60c:	00 0c       	add	r0, r0
 60e:	88 0b       	sbc	r24, r24
 610:	99 0b       	sbc	r25, r25
 612:	0e 94 bf 05 	call	0xb7e	; 0xb7e <__floatsisf>
 616:	4b 01       	movw	r8, r22
 618:	5c 01       	movw	r10, r24
 61a:	6f 2d       	mov	r22, r15
 61c:	70 e0       	ldi	r23, 0x00	; 0
 61e:	29 85       	ldd	r18, Y+9	; 0x09
 620:	62 1b       	sub	r22, r18
 622:	71 09       	sbc	r23, r1
 624:	07 2e       	mov	r0, r23
 626:	00 0c       	add	r0, r0
 628:	88 0b       	sbc	r24, r24
 62a:	99 0b       	sbc	r25, r25
 62c:	0e 94 bf 05 	call	0xb7e	; 0xb7e <__floatsisf>
 630:	6b 01       	movw	r12, r22
 632:	7c 01       	movw	r14, r24
 634:	24 01       	movw	r4, r8
 636:	35 01       	movw	r6, r10
 638:	e8 94       	clt
 63a:	77 f8       	bld	r7, 7
 63c:	dc 01       	movw	r26, r24
 63e:	cb 01       	movw	r24, r22
 640:	bf 77       	andi	r27, 0x7F	; 127
 642:	89 83       	std	Y+1, r24	; 0x01
 644:	9a 83       	std	Y+2, r25	; 0x02
 646:	ab 83       	std	Y+3, r26	; 0x03
 648:	bc 83       	std	Y+4, r27	; 0x04
 64a:	9c 01       	movw	r18, r24
 64c:	ad 01       	movw	r20, r26
 64e:	c3 01       	movw	r24, r6
 650:	b2 01       	movw	r22, r4
 652:	0e 94 4b 06 	call	0xc96	; 0xc96 <__gesf2>
 656:	87 ff       	sbrs	r24, 7
 658:	04 c0       	rjmp	.+8      	; 0x662 <nokia_lcd_drawline+0x92>
 65a:	49 80       	ldd	r4, Y+1	; 0x01
 65c:	5a 80       	ldd	r5, Y+2	; 0x02
 65e:	6b 80       	ldd	r6, Y+3	; 0x03
 660:	7c 80       	ldd	r7, Y+4	; 0x04
 662:	a3 01       	movw	r20, r6
 664:	92 01       	movw	r18, r4
 666:	c5 01       	movw	r24, r10
 668:	b4 01       	movw	r22, r8
 66a:	0e 94 1c 05 	call	0xa38	; 0xa38 <__divsf3>
 66e:	69 83       	std	Y+1, r22	; 0x01
 670:	7a 83       	std	Y+2, r23	; 0x02
 672:	8b 83       	std	Y+3, r24	; 0x03
 674:	9c 83       	std	Y+4, r25	; 0x04
 676:	a3 01       	movw	r20, r6
 678:	92 01       	movw	r18, r4
 67a:	c7 01       	movw	r24, r14
 67c:	b6 01       	movw	r22, r12
 67e:	0e 94 1c 05 	call	0xa38	; 0xa38 <__divsf3>
 682:	6d 83       	std	Y+5, r22	; 0x05
 684:	7e 83       	std	Y+6, r23	; 0x06
 686:	8f 83       	std	Y+7, r24	; 0x07
 688:	98 87       	std	Y+8, r25	; 0x08
 68a:	ad 85       	ldd	r26, Y+13	; 0x0d
 68c:	6a 2f       	mov	r22, r26
 68e:	70 e0       	ldi	r23, 0x00	; 0
 690:	80 e0       	ldi	r24, 0x00	; 0
 692:	90 e0       	ldi	r25, 0x00	; 0
 694:	0e 94 bd 05 	call	0xb7a	; 0xb7a <__floatunsisf>
 698:	6b 01       	movw	r12, r22
 69a:	7c 01       	movw	r14, r24
 69c:	b9 85       	ldd	r27, Y+9	; 0x09
 69e:	6b 2f       	mov	r22, r27
 6a0:	70 e0       	ldi	r23, 0x00	; 0
 6a2:	80 e0       	ldi	r24, 0x00	; 0
 6a4:	90 e0       	ldi	r25, 0x00	; 0
 6a6:	0e 94 bd 05 	call	0xb7a	; 0xb7a <__floatunsisf>
 6aa:	4b 01       	movw	r8, r22
 6ac:	5c 01       	movw	r10, r24
 6ae:	21 e0       	ldi	r18, 0x01	; 1
 6b0:	30 e0       	ldi	r19, 0x00	; 0
 6b2:	3e 87       	std	Y+14, r19	; 0x0e
 6b4:	2d 87       	std	Y+13, r18	; 0x0d
 6b6:	ad 85       	ldd	r26, Y+13	; 0x0d
 6b8:	be 85       	ldd	r27, Y+14	; 0x0e
 6ba:	bd 01       	movw	r22, r26
 6bc:	bb 0f       	add	r27, r27
 6be:	88 0b       	sbc	r24, r24
 6c0:	99 0b       	sbc	r25, r25
 6c2:	0e 94 bf 05 	call	0xb7e	; 0xb7e <__floatsisf>
 6c6:	9b 01       	movw	r18, r22
 6c8:	ac 01       	movw	r20, r24
 6ca:	c3 01       	movw	r24, r6
 6cc:	b2 01       	movw	r22, r4
 6ce:	0e 94 4b 06 	call	0xc96	; 0xc96 <__gesf2>
 6d2:	87 fd       	sbrc	r24, 7
 6d4:	2c c0       	rjmp	.+88     	; 0x72e <nokia_lcd_drawline+0x15e>
 6d6:	c5 01       	movw	r24, r10
 6d8:	b4 01       	movw	r22, r8
 6da:	0e 94 8e 05 	call	0xb1c	; 0xb1c <__fixunssfsi>
 6de:	69 87       	std	Y+9, r22	; 0x09
 6e0:	7a 87       	std	Y+10, r23	; 0x0a
 6e2:	8b 87       	std	Y+11, r24	; 0x0b
 6e4:	9c 87       	std	Y+12, r25	; 0x0c
 6e6:	c7 01       	movw	r24, r14
 6e8:	b6 01       	movw	r22, r12
 6ea:	0e 94 8e 05 	call	0xb1c	; 0xb1c <__fixunssfsi>
 6ee:	dc 01       	movw	r26, r24
 6f0:	cb 01       	movw	r24, r22
 6f2:	41 e0       	ldi	r20, 0x01	; 1
 6f4:	69 85       	ldd	r22, Y+9	; 0x09
 6f6:	0e 94 f5 01 	call	0x3ea	; 0x3ea <nokia_lcd_set_pixel>
 6fa:	29 81       	ldd	r18, Y+1	; 0x01
 6fc:	3a 81       	ldd	r19, Y+2	; 0x02
 6fe:	4b 81       	ldd	r20, Y+3	; 0x03
 700:	5c 81       	ldd	r21, Y+4	; 0x04
 702:	c7 01       	movw	r24, r14
 704:	b6 01       	movw	r22, r12
 706:	0e 94 b0 04 	call	0x960	; 0x960 <__addsf3>
 70a:	6b 01       	movw	r12, r22
 70c:	7c 01       	movw	r14, r24
 70e:	2d 81       	ldd	r18, Y+5	; 0x05
 710:	3e 81       	ldd	r19, Y+6	; 0x06
 712:	4f 81       	ldd	r20, Y+7	; 0x07
 714:	58 85       	ldd	r21, Y+8	; 0x08
 716:	c5 01       	movw	r24, r10
 718:	b4 01       	movw	r22, r8
 71a:	0e 94 b0 04 	call	0x960	; 0x960 <__addsf3>
 71e:	4b 01       	movw	r8, r22
 720:	5c 01       	movw	r10, r24
 722:	8d 85       	ldd	r24, Y+13	; 0x0d
 724:	9e 85       	ldd	r25, Y+14	; 0x0e
 726:	01 96       	adiw	r24, 0x01	; 1
 728:	9e 87       	std	Y+14, r25	; 0x0e
 72a:	8d 87       	std	Y+13, r24	; 0x0d
 72c:	c4 cf       	rjmp	.-120    	; 0x6b6 <nokia_lcd_drawline+0xe6>
 72e:	2e 96       	adiw	r28, 0x0e	; 14
 730:	0f b6       	in	r0, 0x3f	; 63
 732:	f8 94       	cli
 734:	de bf       	out	0x3e, r29	; 62
 736:	0f be       	out	0x3f, r0	; 63
 738:	cd bf       	out	0x3d, r28	; 61
 73a:	df 91       	pop	r29
 73c:	cf 91       	pop	r28
 73e:	ff 90       	pop	r15
 740:	ef 90       	pop	r14
 742:	df 90       	pop	r13
 744:	cf 90       	pop	r12
 746:	bf 90       	pop	r11
 748:	af 90       	pop	r10
 74a:	9f 90       	pop	r9
 74c:	8f 90       	pop	r8
 74e:	7f 90       	pop	r7
 750:	6f 90       	pop	r6
 752:	5f 90       	pop	r5
 754:	4f 90       	pop	r4
 756:	08 95       	ret

00000758 <nokia_lcd_drawrect>:
 758:	0f 93       	push	r16
 75a:	1f 93       	push	r17
 75c:	cf 93       	push	r28
 75e:	df 93       	push	r29
 760:	c8 2f       	mov	r28, r24
 762:	16 2f       	mov	r17, r22
 764:	04 2f       	mov	r16, r20
 766:	d2 2f       	mov	r29, r18
 768:	26 2f       	mov	r18, r22
 76a:	0e 94 e8 02 	call	0x5d0	; 0x5d0 <nokia_lcd_drawline>
 76e:	2d 2f       	mov	r18, r29
 770:	40 2f       	mov	r20, r16
 772:	61 2f       	mov	r22, r17
 774:	80 2f       	mov	r24, r16
 776:	0e 94 e8 02 	call	0x5d0	; 0x5d0 <nokia_lcd_drawline>
 77a:	2d 2f       	mov	r18, r29
 77c:	4c 2f       	mov	r20, r28
 77e:	6d 2f       	mov	r22, r29
 780:	80 2f       	mov	r24, r16
 782:	0e 94 e8 02 	call	0x5d0	; 0x5d0 <nokia_lcd_drawline>
 786:	21 2f       	mov	r18, r17
 788:	4c 2f       	mov	r20, r28
 78a:	6d 2f       	mov	r22, r29
 78c:	8c 2f       	mov	r24, r28
 78e:	df 91       	pop	r29
 790:	cf 91       	pop	r28
 792:	1f 91       	pop	r17
 794:	0f 91       	pop	r16
 796:	0c 94 e8 02 	jmp	0x5d0	; 0x5d0 <nokia_lcd_drawline>

0000079a <nokia_lcd_drawcircle>:
 79a:	7f 92       	push	r7
 79c:	8f 92       	push	r8
 79e:	9f 92       	push	r9
 7a0:	af 92       	push	r10
 7a2:	bf 92       	push	r11
 7a4:	cf 92       	push	r12
 7a6:	df 92       	push	r13
 7a8:	ef 92       	push	r14
 7aa:	ff 92       	push	r15
 7ac:	0f 93       	push	r16
 7ae:	1f 93       	push	r17
 7b0:	cf 93       	push	r28
 7b2:	df 93       	push	r29
 7b4:	d8 2e       	mov	r13, r24
 7b6:	c6 2e       	mov	r12, r22
 7b8:	c4 2f       	mov	r28, r20
 7ba:	d0 e0       	ldi	r29, 0x00	; 0
 7bc:	e1 2c       	mov	r14, r1
 7be:	f1 2c       	mov	r15, r1
 7c0:	00 e0       	ldi	r16, 0x00	; 0
 7c2:	10 e0       	ldi	r17, 0x00	; 0
 7c4:	41 e0       	ldi	r20, 0x01	; 1
 7c6:	ac 2c       	mov	r10, r12
 7c8:	a0 0e       	add	r10, r16
 7ca:	6a 2d       	mov	r22, r10
 7cc:	bc 2e       	mov	r11, r28
 7ce:	bd 0c       	add	r11, r13
 7d0:	8b 2d       	mov	r24, r11
 7d2:	0e 94 f5 01 	call	0x3ea	; 0x3ea <nokia_lcd_set_pixel>
 7d6:	41 e0       	ldi	r20, 0x01	; 1
 7d8:	8c 2e       	mov	r8, r28
 7da:	8c 0c       	add	r8, r12
 7dc:	68 2d       	mov	r22, r8
 7de:	9d 2c       	mov	r9, r13
 7e0:	90 0e       	add	r9, r16
 7e2:	89 2d       	mov	r24, r9
 7e4:	0e 94 f5 01 	call	0x3ea	; 0x3ea <nokia_lcd_set_pixel>
 7e8:	41 e0       	ldi	r20, 0x01	; 1
 7ea:	68 2d       	mov	r22, r8
 7ec:	7d 2c       	mov	r7, r13
 7ee:	70 1a       	sub	r7, r16
 7f0:	87 2d       	mov	r24, r7
 7f2:	0e 94 f5 01 	call	0x3ea	; 0x3ea <nokia_lcd_set_pixel>
 7f6:	41 e0       	ldi	r20, 0x01	; 1
 7f8:	6a 2d       	mov	r22, r10
 7fa:	8d 2c       	mov	r8, r13
 7fc:	8c 1a       	sub	r8, r28
 7fe:	88 2d       	mov	r24, r8
 800:	0e 94 f5 01 	call	0x3ea	; 0x3ea <nokia_lcd_set_pixel>
 804:	41 e0       	ldi	r20, 0x01	; 1
 806:	ac 2c       	mov	r10, r12
 808:	a0 1a       	sub	r10, r16
 80a:	6a 2d       	mov	r22, r10
 80c:	88 2d       	mov	r24, r8
 80e:	0e 94 f5 01 	call	0x3ea	; 0x3ea <nokia_lcd_set_pixel>
 812:	41 e0       	ldi	r20, 0x01	; 1
 814:	8c 2c       	mov	r8, r12
 816:	8c 1a       	sub	r8, r28
 818:	68 2d       	mov	r22, r8
 81a:	87 2d       	mov	r24, r7
 81c:	0e 94 f5 01 	call	0x3ea	; 0x3ea <nokia_lcd_set_pixel>
 820:	41 e0       	ldi	r20, 0x01	; 1
 822:	68 2d       	mov	r22, r8
 824:	89 2d       	mov	r24, r9
 826:	0e 94 f5 01 	call	0x3ea	; 0x3ea <nokia_lcd_set_pixel>
 82a:	41 e0       	ldi	r20, 0x01	; 1
 82c:	6a 2d       	mov	r22, r10
 82e:	8b 2d       	mov	r24, r11
 830:	0e 94 f5 01 	call	0x3ea	; 0x3ea <nokia_lcd_set_pixel>
 834:	1e 14       	cp	r1, r14
 836:	1f 04       	cpc	r1, r15
 838:	5c f0       	brlt	.+22     	; 0x850 <__DATA_REGION_LENGTH__+0x50>
 83a:	0f 5f       	subi	r16, 0xFF	; 255
 83c:	1f 4f       	sbci	r17, 0xFF	; 255
 83e:	c8 01       	movw	r24, r16
 840:	88 0f       	add	r24, r24
 842:	99 1f       	adc	r25, r25
 844:	01 96       	adiw	r24, 0x01	; 1
 846:	e8 0e       	add	r14, r24
 848:	f9 1e       	adc	r15, r25
 84a:	1e 14       	cp	r1, r14
 84c:	1f 04       	cpc	r1, r15
 84e:	3c f4       	brge	.+14     	; 0x85e <__DATA_REGION_LENGTH__+0x5e>
 850:	21 97       	sbiw	r28, 0x01	; 1
 852:	ce 01       	movw	r24, r28
 854:	88 0f       	add	r24, r24
 856:	99 1f       	adc	r25, r25
 858:	01 96       	adiw	r24, 0x01	; 1
 85a:	e8 1a       	sub	r14, r24
 85c:	f9 0a       	sbc	r15, r25
 85e:	c0 17       	cp	r28, r16
 860:	d1 07       	cpc	r29, r17
 862:	0c f0       	brlt	.+2      	; 0x866 <__DATA_REGION_LENGTH__+0x66>
 864:	af cf       	rjmp	.-162    	; 0x7c4 <nokia_lcd_drawcircle+0x2a>
 866:	df 91       	pop	r29
 868:	cf 91       	pop	r28
 86a:	1f 91       	pop	r17
 86c:	0f 91       	pop	r16
 86e:	ff 90       	pop	r15
 870:	ef 90       	pop	r14
 872:	df 90       	pop	r13
 874:	cf 90       	pop	r12
 876:	bf 90       	pop	r11
 878:	af 90       	pop	r10
 87a:	9f 90       	pop	r9
 87c:	8f 90       	pop	r8
 87e:	7f 90       	pop	r7
 880:	08 95       	ret

00000882 <main>:
 882:	f8 94       	cli
 884:	84 b1       	in	r24, 0x04	; 4
 886:	81 7f       	andi	r24, 0xF1	; 241
 888:	84 b9       	out	0x04, r24	; 4
 88a:	85 b1       	in	r24, 0x05	; 5
 88c:	87 60       	ori	r24, 0x07	; 7
 88e:	85 b9       	out	0x05, r24	; 5
 890:	8a b1       	in	r24, 0x0a	; 10
 892:	87 60       	ori	r24, 0x07	; 7
 894:	8a b9       	out	0x0a, r24	; 10
 896:	10 92 80 00 	sts	0x0080, r1	; 0x800080 <__TEXT_REGION_LENGTH__+0x7f8080>
 89a:	10 92 81 00 	sts	0x0081, r1	; 0x800081 <__TEXT_REGION_LENGTH__+0x7f8081>
 89e:	10 92 85 00 	sts	0x0085, r1	; 0x800085 <__TEXT_REGION_LENGTH__+0x7f8085>
 8a2:	10 92 84 00 	sts	0x0084, r1	; 0x800084 <__TEXT_REGION_LENGTH__+0x7f8084>
 8a6:	89 e1       	ldi	r24, 0x19	; 25
 8a8:	96 e0       	ldi	r25, 0x06	; 6
 8aa:	90 93 89 00 	sts	0x0089, r25	; 0x800089 <__TEXT_REGION_LENGTH__+0x7f8089>
 8ae:	80 93 88 00 	sts	0x0088, r24	; 0x800088 <__TEXT_REGION_LENGTH__+0x7f8088>
 8b2:	80 91 81 00 	lds	r24, 0x0081	; 0x800081 <__TEXT_REGION_LENGTH__+0x7f8081>
 8b6:	88 60       	ori	r24, 0x08	; 8
 8b8:	80 93 81 00 	sts	0x0081, r24	; 0x800081 <__TEXT_REGION_LENGTH__+0x7f8081>
 8bc:	80 91 81 00 	lds	r24, 0x0081	; 0x800081 <__TEXT_REGION_LENGTH__+0x7f8081>
 8c0:	85 60       	ori	r24, 0x05	; 5
 8c2:	80 93 81 00 	sts	0x0081, r24	; 0x800081 <__TEXT_REGION_LENGTH__+0x7f8081>
 8c6:	80 91 6f 00 	lds	r24, 0x006F	; 0x80006f <__TEXT_REGION_LENGTH__+0x7f806f>
 8ca:	82 60       	ori	r24, 0x02	; 2
 8cc:	80 93 6f 00 	sts	0x006F, r24	; 0x80006f <__TEXT_REGION_LENGTH__+0x7f806f>
 8d0:	0e 94 96 01 	call	0x32c	; 0x32c <nokia_lcd_init>
 8d4:	0e 94 d9 01 	call	0x3b2	; 0x3b2 <nokia_lcd_clear>
 8d8:	60 e0       	ldi	r22, 0x00	; 0
 8da:	71 e0       	ldi	r23, 0x01	; 1
 8dc:	81 e0       	ldi	r24, 0x01	; 1
 8de:	0e 94 b4 02 	call	0x568	; 0x568 <nokia_lcd_custom>
 8e2:	d6 e1       	ldi	r29, 0x16	; 22
 8e4:	c5 e0       	ldi	r28, 0x05	; 5
 8e6:	0e 94 d9 01 	call	0x3b2	; 0x3b2 <nokia_lcd_clear>
 8ea:	45 e0       	ldi	r20, 0x05	; 5
 8ec:	6c 2f       	mov	r22, r28
 8ee:	8d 2f       	mov	r24, r29
 8f0:	0e 94 cd 03 	call	0x79a	; 0x79a <nokia_lcd_drawcircle>
 8f4:	0e 94 d3 02 	call	0x5a6	; 0x5a6 <nokia_lcd_render>
 8f8:	2f ef       	ldi	r18, 0xFF	; 255
 8fa:	81 ee       	ldi	r24, 0xE1	; 225
 8fc:	94 e0       	ldi	r25, 0x04	; 4
 8fe:	21 50       	subi	r18, 0x01	; 1
 900:	80 40       	sbci	r24, 0x00	; 0
 902:	90 40       	sbci	r25, 0x00	; 0
 904:	e1 f7       	brne	.-8      	; 0x8fe <main+0x7c>
 906:	00 c0       	rjmp	.+0      	; 0x908 <__stack+0x9>
 908:	00 00       	nop
 90a:	cf 5f       	subi	r28, 0xFF	; 255
 90c:	ce 31       	cpi	r28, 0x1E	; 30
 90e:	59 f7       	brne	.-42     	; 0x8e6 <main+0x64>
 910:	da 5e       	subi	r29, 0xEA	; 234
 912:	d8 35       	cpi	r29, 0x58	; 88
 914:	39 f7       	brne	.-50     	; 0x8e4 <main+0x62>
 916:	0e 94 6c 01 	call	0x2d8	; 0x2d8 <game_over>
 91a:	87 e0       	ldi	r24, 0x07	; 7
 91c:	8b b9       	out	0x0b, r24	; 11
 91e:	19 99       	sbic	0x03, 1	; 3
 920:	09 c0       	rjmp	.+18     	; 0x934 <__stack+0x35>
 922:	0e 94 d9 01 	call	0x3b2	; 0x3b2 <nokia_lcd_clear>
 926:	61 e0       	ldi	r22, 0x01	; 1
 928:	8f e0       	ldi	r24, 0x0F	; 15
 92a:	91 e0       	ldi	r25, 0x01	; 1
 92c:	0e 94 be 02 	call	0x57c	; 0x57c <nokia_lcd_write_string>
 930:	0e 94 d3 02 	call	0x5a6	; 0x5a6 <nokia_lcd_render>
 934:	19 99       	sbic	0x03, 1	; 3
 936:	f3 cf       	rjmp	.-26     	; 0x91e <__stack+0x1f>
 938:	8f e9       	ldi	r24, 0x9F	; 159
 93a:	9f e0       	ldi	r25, 0x0F	; 15
 93c:	01 97       	sbiw	r24, 0x01	; 1
 93e:	f1 f7       	brne	.-4      	; 0x93c <__stack+0x3d>
 940:	00 c0       	rjmp	.+0      	; 0x942 <__stack+0x43>
 942:	00 00       	nop
 944:	f7 cf       	rjmp	.-18     	; 0x934 <__stack+0x35>

00000946 <__udivmodqi4>:
 946:	99 1b       	sub	r25, r25
 948:	79 e0       	ldi	r23, 0x09	; 9
 94a:	04 c0       	rjmp	.+8      	; 0x954 <__udivmodqi4_ep>

0000094c <__udivmodqi4_loop>:
 94c:	99 1f       	adc	r25, r25
 94e:	96 17       	cp	r25, r22
 950:	08 f0       	brcs	.+2      	; 0x954 <__udivmodqi4_ep>
 952:	96 1b       	sub	r25, r22

00000954 <__udivmodqi4_ep>:
 954:	88 1f       	adc	r24, r24
 956:	7a 95       	dec	r23
 958:	c9 f7       	brne	.-14     	; 0x94c <__udivmodqi4_loop>
 95a:	80 95       	com	r24
 95c:	08 95       	ret

0000095e <__subsf3>:
 95e:	50 58       	subi	r21, 0x80	; 128

00000960 <__addsf3>:
 960:	bb 27       	eor	r27, r27
 962:	aa 27       	eor	r26, r26
 964:	0e 94 c7 04 	call	0x98e	; 0x98e <__addsf3x>
 968:	0c 94 11 06 	jmp	0xc22	; 0xc22 <__fp_round>
 96c:	0e 94 03 06 	call	0xc06	; 0xc06 <__fp_pscA>
 970:	38 f0       	brcs	.+14     	; 0x980 <__addsf3+0x20>
 972:	0e 94 0a 06 	call	0xc14	; 0xc14 <__fp_pscB>
 976:	20 f0       	brcs	.+8      	; 0x980 <__addsf3+0x20>
 978:	39 f4       	brne	.+14     	; 0x988 <__addsf3+0x28>
 97a:	9f 3f       	cpi	r25, 0xFF	; 255
 97c:	19 f4       	brne	.+6      	; 0x984 <__addsf3+0x24>
 97e:	26 f4       	brtc	.+8      	; 0x988 <__addsf3+0x28>
 980:	0c 94 00 06 	jmp	0xc00	; 0xc00 <__fp_nan>
 984:	0e f4       	brtc	.+2      	; 0x988 <__addsf3+0x28>
 986:	e0 95       	com	r30
 988:	e7 fb       	bst	r30, 7
 98a:	0c 94 fa 05 	jmp	0xbf4	; 0xbf4 <__fp_inf>

0000098e <__addsf3x>:
 98e:	e9 2f       	mov	r30, r25
 990:	0e 94 22 06 	call	0xc44	; 0xc44 <__fp_split3>
 994:	58 f3       	brcs	.-42     	; 0x96c <__addsf3+0xc>
 996:	ba 17       	cp	r27, r26
 998:	62 07       	cpc	r22, r18
 99a:	73 07       	cpc	r23, r19
 99c:	84 07       	cpc	r24, r20
 99e:	95 07       	cpc	r25, r21
 9a0:	20 f0       	brcs	.+8      	; 0x9aa <__addsf3x+0x1c>
 9a2:	79 f4       	brne	.+30     	; 0x9c2 <__addsf3x+0x34>
 9a4:	a6 f5       	brtc	.+104    	; 0xa0e <__addsf3x+0x80>
 9a6:	0c 94 44 06 	jmp	0xc88	; 0xc88 <__fp_zero>
 9aa:	0e f4       	brtc	.+2      	; 0x9ae <__addsf3x+0x20>
 9ac:	e0 95       	com	r30
 9ae:	0b 2e       	mov	r0, r27
 9b0:	ba 2f       	mov	r27, r26
 9b2:	a0 2d       	mov	r26, r0
 9b4:	0b 01       	movw	r0, r22
 9b6:	b9 01       	movw	r22, r18
 9b8:	90 01       	movw	r18, r0
 9ba:	0c 01       	movw	r0, r24
 9bc:	ca 01       	movw	r24, r20
 9be:	a0 01       	movw	r20, r0
 9c0:	11 24       	eor	r1, r1
 9c2:	ff 27       	eor	r31, r31
 9c4:	59 1b       	sub	r21, r25
 9c6:	99 f0       	breq	.+38     	; 0x9ee <__addsf3x+0x60>
 9c8:	59 3f       	cpi	r21, 0xF9	; 249
 9ca:	50 f4       	brcc	.+20     	; 0x9e0 <__addsf3x+0x52>
 9cc:	50 3e       	cpi	r21, 0xE0	; 224
 9ce:	68 f1       	brcs	.+90     	; 0xa2a <__addsf3x+0x9c>
 9d0:	1a 16       	cp	r1, r26
 9d2:	f0 40       	sbci	r31, 0x00	; 0
 9d4:	a2 2f       	mov	r26, r18
 9d6:	23 2f       	mov	r18, r19
 9d8:	34 2f       	mov	r19, r20
 9da:	44 27       	eor	r20, r20
 9dc:	58 5f       	subi	r21, 0xF8	; 248
 9de:	f3 cf       	rjmp	.-26     	; 0x9c6 <__addsf3x+0x38>
 9e0:	46 95       	lsr	r20
 9e2:	37 95       	ror	r19
 9e4:	27 95       	ror	r18
 9e6:	a7 95       	ror	r26
 9e8:	f0 40       	sbci	r31, 0x00	; 0
 9ea:	53 95       	inc	r21
 9ec:	c9 f7       	brne	.-14     	; 0x9e0 <__addsf3x+0x52>
 9ee:	7e f4       	brtc	.+30     	; 0xa0e <__addsf3x+0x80>
 9f0:	1f 16       	cp	r1, r31
 9f2:	ba 0b       	sbc	r27, r26
 9f4:	62 0b       	sbc	r22, r18
 9f6:	73 0b       	sbc	r23, r19
 9f8:	84 0b       	sbc	r24, r20
 9fa:	ba f0       	brmi	.+46     	; 0xa2a <__addsf3x+0x9c>
 9fc:	91 50       	subi	r25, 0x01	; 1
 9fe:	a1 f0       	breq	.+40     	; 0xa28 <__addsf3x+0x9a>
 a00:	ff 0f       	add	r31, r31
 a02:	bb 1f       	adc	r27, r27
 a04:	66 1f       	adc	r22, r22
 a06:	77 1f       	adc	r23, r23
 a08:	88 1f       	adc	r24, r24
 a0a:	c2 f7       	brpl	.-16     	; 0x9fc <__addsf3x+0x6e>
 a0c:	0e c0       	rjmp	.+28     	; 0xa2a <__addsf3x+0x9c>
 a0e:	ba 0f       	add	r27, r26
 a10:	62 1f       	adc	r22, r18
 a12:	73 1f       	adc	r23, r19
 a14:	84 1f       	adc	r24, r20
 a16:	48 f4       	brcc	.+18     	; 0xa2a <__addsf3x+0x9c>
 a18:	87 95       	ror	r24
 a1a:	77 95       	ror	r23
 a1c:	67 95       	ror	r22
 a1e:	b7 95       	ror	r27
 a20:	f7 95       	ror	r31
 a22:	9e 3f       	cpi	r25, 0xFE	; 254
 a24:	08 f0       	brcs	.+2      	; 0xa28 <__addsf3x+0x9a>
 a26:	b0 cf       	rjmp	.-160    	; 0x988 <__addsf3+0x28>
 a28:	93 95       	inc	r25
 a2a:	88 0f       	add	r24, r24
 a2c:	08 f0       	brcs	.+2      	; 0xa30 <__addsf3x+0xa2>
 a2e:	99 27       	eor	r25, r25
 a30:	ee 0f       	add	r30, r30
 a32:	97 95       	ror	r25
 a34:	87 95       	ror	r24
 a36:	08 95       	ret

00000a38 <__divsf3>:
 a38:	0e 94 30 05 	call	0xa60	; 0xa60 <__divsf3x>
 a3c:	0c 94 11 06 	jmp	0xc22	; 0xc22 <__fp_round>
 a40:	0e 94 0a 06 	call	0xc14	; 0xc14 <__fp_pscB>
 a44:	58 f0       	brcs	.+22     	; 0xa5c <__divsf3+0x24>
 a46:	0e 94 03 06 	call	0xc06	; 0xc06 <__fp_pscA>
 a4a:	40 f0       	brcs	.+16     	; 0xa5c <__divsf3+0x24>
 a4c:	29 f4       	brne	.+10     	; 0xa58 <__divsf3+0x20>
 a4e:	5f 3f       	cpi	r21, 0xFF	; 255
 a50:	29 f0       	breq	.+10     	; 0xa5c <__divsf3+0x24>
 a52:	0c 94 fa 05 	jmp	0xbf4	; 0xbf4 <__fp_inf>
 a56:	51 11       	cpse	r21, r1
 a58:	0c 94 45 06 	jmp	0xc8a	; 0xc8a <__fp_szero>
 a5c:	0c 94 00 06 	jmp	0xc00	; 0xc00 <__fp_nan>

00000a60 <__divsf3x>:
 a60:	0e 94 22 06 	call	0xc44	; 0xc44 <__fp_split3>
 a64:	68 f3       	brcs	.-38     	; 0xa40 <__divsf3+0x8>

00000a66 <__divsf3_pse>:
 a66:	99 23       	and	r25, r25
 a68:	b1 f3       	breq	.-20     	; 0xa56 <__divsf3+0x1e>
 a6a:	55 23       	and	r21, r21
 a6c:	91 f3       	breq	.-28     	; 0xa52 <__divsf3+0x1a>
 a6e:	95 1b       	sub	r25, r21
 a70:	55 0b       	sbc	r21, r21
 a72:	bb 27       	eor	r27, r27
 a74:	aa 27       	eor	r26, r26
 a76:	62 17       	cp	r22, r18
 a78:	73 07       	cpc	r23, r19
 a7a:	84 07       	cpc	r24, r20
 a7c:	38 f0       	brcs	.+14     	; 0xa8c <__divsf3_pse+0x26>
 a7e:	9f 5f       	subi	r25, 0xFF	; 255
 a80:	5f 4f       	sbci	r21, 0xFF	; 255
 a82:	22 0f       	add	r18, r18
 a84:	33 1f       	adc	r19, r19
 a86:	44 1f       	adc	r20, r20
 a88:	aa 1f       	adc	r26, r26
 a8a:	a9 f3       	breq	.-22     	; 0xa76 <__divsf3_pse+0x10>
 a8c:	35 d0       	rcall	.+106    	; 0xaf8 <__divsf3_pse+0x92>
 a8e:	0e 2e       	mov	r0, r30
 a90:	3a f0       	brmi	.+14     	; 0xaa0 <__divsf3_pse+0x3a>
 a92:	e0 e8       	ldi	r30, 0x80	; 128
 a94:	32 d0       	rcall	.+100    	; 0xafa <__divsf3_pse+0x94>
 a96:	91 50       	subi	r25, 0x01	; 1
 a98:	50 40       	sbci	r21, 0x00	; 0
 a9a:	e6 95       	lsr	r30
 a9c:	00 1c       	adc	r0, r0
 a9e:	ca f7       	brpl	.-14     	; 0xa92 <__divsf3_pse+0x2c>
 aa0:	2b d0       	rcall	.+86     	; 0xaf8 <__divsf3_pse+0x92>
 aa2:	fe 2f       	mov	r31, r30
 aa4:	29 d0       	rcall	.+82     	; 0xaf8 <__divsf3_pse+0x92>
 aa6:	66 0f       	add	r22, r22
 aa8:	77 1f       	adc	r23, r23
 aaa:	88 1f       	adc	r24, r24
 aac:	bb 1f       	adc	r27, r27
 aae:	26 17       	cp	r18, r22
 ab0:	37 07       	cpc	r19, r23
 ab2:	48 07       	cpc	r20, r24
 ab4:	ab 07       	cpc	r26, r27
 ab6:	b0 e8       	ldi	r27, 0x80	; 128
 ab8:	09 f0       	breq	.+2      	; 0xabc <__divsf3_pse+0x56>
 aba:	bb 0b       	sbc	r27, r27
 abc:	80 2d       	mov	r24, r0
 abe:	bf 01       	movw	r22, r30
 ac0:	ff 27       	eor	r31, r31
 ac2:	93 58       	subi	r25, 0x83	; 131
 ac4:	5f 4f       	sbci	r21, 0xFF	; 255
 ac6:	3a f0       	brmi	.+14     	; 0xad6 <__divsf3_pse+0x70>
 ac8:	9e 3f       	cpi	r25, 0xFE	; 254
 aca:	51 05       	cpc	r21, r1
 acc:	78 f0       	brcs	.+30     	; 0xaec <__divsf3_pse+0x86>
 ace:	0c 94 fa 05 	jmp	0xbf4	; 0xbf4 <__fp_inf>
 ad2:	0c 94 45 06 	jmp	0xc8a	; 0xc8a <__fp_szero>
 ad6:	5f 3f       	cpi	r21, 0xFF	; 255
 ad8:	e4 f3       	brlt	.-8      	; 0xad2 <__divsf3_pse+0x6c>
 ada:	98 3e       	cpi	r25, 0xE8	; 232
 adc:	d4 f3       	brlt	.-12     	; 0xad2 <__divsf3_pse+0x6c>
 ade:	86 95       	lsr	r24
 ae0:	77 95       	ror	r23
 ae2:	67 95       	ror	r22
 ae4:	b7 95       	ror	r27
 ae6:	f7 95       	ror	r31
 ae8:	9f 5f       	subi	r25, 0xFF	; 255
 aea:	c9 f7       	brne	.-14     	; 0xade <__divsf3_pse+0x78>
 aec:	88 0f       	add	r24, r24
 aee:	91 1d       	adc	r25, r1
 af0:	96 95       	lsr	r25
 af2:	87 95       	ror	r24
 af4:	97 f9       	bld	r25, 7
 af6:	08 95       	ret
 af8:	e1 e0       	ldi	r30, 0x01	; 1
 afa:	66 0f       	add	r22, r22
 afc:	77 1f       	adc	r23, r23
 afe:	88 1f       	adc	r24, r24
 b00:	bb 1f       	adc	r27, r27
 b02:	62 17       	cp	r22, r18
 b04:	73 07       	cpc	r23, r19
 b06:	84 07       	cpc	r24, r20
 b08:	ba 07       	cpc	r27, r26
 b0a:	20 f0       	brcs	.+8      	; 0xb14 <__divsf3_pse+0xae>
 b0c:	62 1b       	sub	r22, r18
 b0e:	73 0b       	sbc	r23, r19
 b10:	84 0b       	sbc	r24, r20
 b12:	ba 0b       	sbc	r27, r26
 b14:	ee 1f       	adc	r30, r30
 b16:	88 f7       	brcc	.-30     	; 0xafa <__divsf3_pse+0x94>
 b18:	e0 95       	com	r30
 b1a:	08 95       	ret

00000b1c <__fixunssfsi>:
 b1c:	0e 94 2a 06 	call	0xc54	; 0xc54 <__fp_splitA>
 b20:	88 f0       	brcs	.+34     	; 0xb44 <__fixunssfsi+0x28>
 b22:	9f 57       	subi	r25, 0x7F	; 127
 b24:	98 f0       	brcs	.+38     	; 0xb4c <__fixunssfsi+0x30>
 b26:	b9 2f       	mov	r27, r25
 b28:	99 27       	eor	r25, r25
 b2a:	b7 51       	subi	r27, 0x17	; 23
 b2c:	b0 f0       	brcs	.+44     	; 0xb5a <__fixunssfsi+0x3e>
 b2e:	e1 f0       	breq	.+56     	; 0xb68 <__fixunssfsi+0x4c>
 b30:	66 0f       	add	r22, r22
 b32:	77 1f       	adc	r23, r23
 b34:	88 1f       	adc	r24, r24
 b36:	99 1f       	adc	r25, r25
 b38:	1a f0       	brmi	.+6      	; 0xb40 <__fixunssfsi+0x24>
 b3a:	ba 95       	dec	r27
 b3c:	c9 f7       	brne	.-14     	; 0xb30 <__fixunssfsi+0x14>
 b3e:	14 c0       	rjmp	.+40     	; 0xb68 <__fixunssfsi+0x4c>
 b40:	b1 30       	cpi	r27, 0x01	; 1
 b42:	91 f0       	breq	.+36     	; 0xb68 <__fixunssfsi+0x4c>
 b44:	0e 94 44 06 	call	0xc88	; 0xc88 <__fp_zero>
 b48:	b1 e0       	ldi	r27, 0x01	; 1
 b4a:	08 95       	ret
 b4c:	0c 94 44 06 	jmp	0xc88	; 0xc88 <__fp_zero>
 b50:	67 2f       	mov	r22, r23
 b52:	78 2f       	mov	r23, r24
 b54:	88 27       	eor	r24, r24
 b56:	b8 5f       	subi	r27, 0xF8	; 248
 b58:	39 f0       	breq	.+14     	; 0xb68 <__fixunssfsi+0x4c>
 b5a:	b9 3f       	cpi	r27, 0xF9	; 249
 b5c:	cc f3       	brlt	.-14     	; 0xb50 <__fixunssfsi+0x34>
 b5e:	86 95       	lsr	r24
 b60:	77 95       	ror	r23
 b62:	67 95       	ror	r22
 b64:	b3 95       	inc	r27
 b66:	d9 f7       	brne	.-10     	; 0xb5e <__fixunssfsi+0x42>
 b68:	3e f4       	brtc	.+14     	; 0xb78 <__fixunssfsi+0x5c>
 b6a:	90 95       	com	r25
 b6c:	80 95       	com	r24
 b6e:	70 95       	com	r23
 b70:	61 95       	neg	r22
 b72:	7f 4f       	sbci	r23, 0xFF	; 255
 b74:	8f 4f       	sbci	r24, 0xFF	; 255
 b76:	9f 4f       	sbci	r25, 0xFF	; 255
 b78:	08 95       	ret

00000b7a <__floatunsisf>:
 b7a:	e8 94       	clt
 b7c:	09 c0       	rjmp	.+18     	; 0xb90 <__floatsisf+0x12>

00000b7e <__floatsisf>:
 b7e:	97 fb       	bst	r25, 7
 b80:	3e f4       	brtc	.+14     	; 0xb90 <__floatsisf+0x12>
 b82:	90 95       	com	r25
 b84:	80 95       	com	r24
 b86:	70 95       	com	r23
 b88:	61 95       	neg	r22
 b8a:	7f 4f       	sbci	r23, 0xFF	; 255
 b8c:	8f 4f       	sbci	r24, 0xFF	; 255
 b8e:	9f 4f       	sbci	r25, 0xFF	; 255
 b90:	99 23       	and	r25, r25
 b92:	a9 f0       	breq	.+42     	; 0xbbe <__floatsisf+0x40>
 b94:	f9 2f       	mov	r31, r25
 b96:	96 e9       	ldi	r25, 0x96	; 150
 b98:	bb 27       	eor	r27, r27
 b9a:	93 95       	inc	r25
 b9c:	f6 95       	lsr	r31
 b9e:	87 95       	ror	r24
 ba0:	77 95       	ror	r23
 ba2:	67 95       	ror	r22
 ba4:	b7 95       	ror	r27
 ba6:	f1 11       	cpse	r31, r1
 ba8:	f8 cf       	rjmp	.-16     	; 0xb9a <__floatsisf+0x1c>
 baa:	fa f4       	brpl	.+62     	; 0xbea <__floatsisf+0x6c>
 bac:	bb 0f       	add	r27, r27
 bae:	11 f4       	brne	.+4      	; 0xbb4 <__floatsisf+0x36>
 bb0:	60 ff       	sbrs	r22, 0
 bb2:	1b c0       	rjmp	.+54     	; 0xbea <__floatsisf+0x6c>
 bb4:	6f 5f       	subi	r22, 0xFF	; 255
 bb6:	7f 4f       	sbci	r23, 0xFF	; 255
 bb8:	8f 4f       	sbci	r24, 0xFF	; 255
 bba:	9f 4f       	sbci	r25, 0xFF	; 255
 bbc:	16 c0       	rjmp	.+44     	; 0xbea <__floatsisf+0x6c>
 bbe:	88 23       	and	r24, r24
 bc0:	11 f0       	breq	.+4      	; 0xbc6 <__floatsisf+0x48>
 bc2:	96 e9       	ldi	r25, 0x96	; 150
 bc4:	11 c0       	rjmp	.+34     	; 0xbe8 <__floatsisf+0x6a>
 bc6:	77 23       	and	r23, r23
 bc8:	21 f0       	breq	.+8      	; 0xbd2 <__floatsisf+0x54>
 bca:	9e e8       	ldi	r25, 0x8E	; 142
 bcc:	87 2f       	mov	r24, r23
 bce:	76 2f       	mov	r23, r22
 bd0:	05 c0       	rjmp	.+10     	; 0xbdc <__floatsisf+0x5e>
 bd2:	66 23       	and	r22, r22
 bd4:	71 f0       	breq	.+28     	; 0xbf2 <__floatsisf+0x74>
 bd6:	96 e8       	ldi	r25, 0x86	; 134
 bd8:	86 2f       	mov	r24, r22
 bda:	70 e0       	ldi	r23, 0x00	; 0
 bdc:	60 e0       	ldi	r22, 0x00	; 0
 bde:	2a f0       	brmi	.+10     	; 0xbea <__floatsisf+0x6c>
 be0:	9a 95       	dec	r25
 be2:	66 0f       	add	r22, r22
 be4:	77 1f       	adc	r23, r23
 be6:	88 1f       	adc	r24, r24
 be8:	da f7       	brpl	.-10     	; 0xbe0 <__floatsisf+0x62>
 bea:	88 0f       	add	r24, r24
 bec:	96 95       	lsr	r25
 bee:	87 95       	ror	r24
 bf0:	97 f9       	bld	r25, 7
 bf2:	08 95       	ret

00000bf4 <__fp_inf>:
 bf4:	97 f9       	bld	r25, 7
 bf6:	9f 67       	ori	r25, 0x7F	; 127
 bf8:	80 e8       	ldi	r24, 0x80	; 128
 bfa:	70 e0       	ldi	r23, 0x00	; 0
 bfc:	60 e0       	ldi	r22, 0x00	; 0
 bfe:	08 95       	ret

00000c00 <__fp_nan>:
 c00:	9f ef       	ldi	r25, 0xFF	; 255
 c02:	80 ec       	ldi	r24, 0xC0	; 192
 c04:	08 95       	ret

00000c06 <__fp_pscA>:
 c06:	00 24       	eor	r0, r0
 c08:	0a 94       	dec	r0
 c0a:	16 16       	cp	r1, r22
 c0c:	17 06       	cpc	r1, r23
 c0e:	18 06       	cpc	r1, r24
 c10:	09 06       	cpc	r0, r25
 c12:	08 95       	ret

00000c14 <__fp_pscB>:
 c14:	00 24       	eor	r0, r0
 c16:	0a 94       	dec	r0
 c18:	12 16       	cp	r1, r18
 c1a:	13 06       	cpc	r1, r19
 c1c:	14 06       	cpc	r1, r20
 c1e:	05 06       	cpc	r0, r21
 c20:	08 95       	ret

00000c22 <__fp_round>:
 c22:	09 2e       	mov	r0, r25
 c24:	03 94       	inc	r0
 c26:	00 0c       	add	r0, r0
 c28:	11 f4       	brne	.+4      	; 0xc2e <__fp_round+0xc>
 c2a:	88 23       	and	r24, r24
 c2c:	52 f0       	brmi	.+20     	; 0xc42 <__fp_round+0x20>
 c2e:	bb 0f       	add	r27, r27
 c30:	40 f4       	brcc	.+16     	; 0xc42 <__fp_round+0x20>
 c32:	bf 2b       	or	r27, r31
 c34:	11 f4       	brne	.+4      	; 0xc3a <__fp_round+0x18>
 c36:	60 ff       	sbrs	r22, 0
 c38:	04 c0       	rjmp	.+8      	; 0xc42 <__fp_round+0x20>
 c3a:	6f 5f       	subi	r22, 0xFF	; 255
 c3c:	7f 4f       	sbci	r23, 0xFF	; 255
 c3e:	8f 4f       	sbci	r24, 0xFF	; 255
 c40:	9f 4f       	sbci	r25, 0xFF	; 255
 c42:	08 95       	ret

00000c44 <__fp_split3>:
 c44:	57 fd       	sbrc	r21, 7
 c46:	90 58       	subi	r25, 0x80	; 128
 c48:	44 0f       	add	r20, r20
 c4a:	55 1f       	adc	r21, r21
 c4c:	59 f0       	breq	.+22     	; 0xc64 <__fp_splitA+0x10>
 c4e:	5f 3f       	cpi	r21, 0xFF	; 255
 c50:	71 f0       	breq	.+28     	; 0xc6e <__fp_splitA+0x1a>
 c52:	47 95       	ror	r20

00000c54 <__fp_splitA>:
 c54:	88 0f       	add	r24, r24
 c56:	97 fb       	bst	r25, 7
 c58:	99 1f       	adc	r25, r25
 c5a:	61 f0       	breq	.+24     	; 0xc74 <__fp_splitA+0x20>
 c5c:	9f 3f       	cpi	r25, 0xFF	; 255
 c5e:	79 f0       	breq	.+30     	; 0xc7e <__fp_splitA+0x2a>
 c60:	87 95       	ror	r24
 c62:	08 95       	ret
 c64:	12 16       	cp	r1, r18
 c66:	13 06       	cpc	r1, r19
 c68:	14 06       	cpc	r1, r20
 c6a:	55 1f       	adc	r21, r21
 c6c:	f2 cf       	rjmp	.-28     	; 0xc52 <__fp_split3+0xe>
 c6e:	46 95       	lsr	r20
 c70:	f1 df       	rcall	.-30     	; 0xc54 <__fp_splitA>
 c72:	08 c0       	rjmp	.+16     	; 0xc84 <__fp_splitA+0x30>
 c74:	16 16       	cp	r1, r22
 c76:	17 06       	cpc	r1, r23
 c78:	18 06       	cpc	r1, r24
 c7a:	99 1f       	adc	r25, r25
 c7c:	f1 cf       	rjmp	.-30     	; 0xc60 <__fp_splitA+0xc>
 c7e:	86 95       	lsr	r24
 c80:	71 05       	cpc	r23, r1
 c82:	61 05       	cpc	r22, r1
 c84:	08 94       	sec
 c86:	08 95       	ret

00000c88 <__fp_zero>:
 c88:	e8 94       	clt

00000c8a <__fp_szero>:
 c8a:	bb 27       	eor	r27, r27
 c8c:	66 27       	eor	r22, r22
 c8e:	77 27       	eor	r23, r23
 c90:	cb 01       	movw	r24, r22
 c92:	97 f9       	bld	r25, 7
 c94:	08 95       	ret

00000c96 <__gesf2>:
 c96:	0e 94 50 06 	call	0xca0	; 0xca0 <__fp_cmp>
 c9a:	08 f4       	brcc	.+2      	; 0xc9e <__gesf2+0x8>
 c9c:	8f ef       	ldi	r24, 0xFF	; 255
 c9e:	08 95       	ret

00000ca0 <__fp_cmp>:
 ca0:	99 0f       	add	r25, r25
 ca2:	00 08       	sbc	r0, r0
 ca4:	55 0f       	add	r21, r21
 ca6:	aa 0b       	sbc	r26, r26
 ca8:	e0 e8       	ldi	r30, 0x80	; 128
 caa:	fe ef       	ldi	r31, 0xFE	; 254
 cac:	16 16       	cp	r1, r22
 cae:	17 06       	cpc	r1, r23
 cb0:	e8 07       	cpc	r30, r24
 cb2:	f9 07       	cpc	r31, r25
 cb4:	c0 f0       	brcs	.+48     	; 0xce6 <__fp_cmp+0x46>
 cb6:	12 16       	cp	r1, r18
 cb8:	13 06       	cpc	r1, r19
 cba:	e4 07       	cpc	r30, r20
 cbc:	f5 07       	cpc	r31, r21
 cbe:	98 f0       	brcs	.+38     	; 0xce6 <__fp_cmp+0x46>
 cc0:	62 1b       	sub	r22, r18
 cc2:	73 0b       	sbc	r23, r19
 cc4:	84 0b       	sbc	r24, r20
 cc6:	95 0b       	sbc	r25, r21
 cc8:	39 f4       	brne	.+14     	; 0xcd8 <__fp_cmp+0x38>
 cca:	0a 26       	eor	r0, r26
 ccc:	61 f0       	breq	.+24     	; 0xce6 <__fp_cmp+0x46>
 cce:	23 2b       	or	r18, r19
 cd0:	24 2b       	or	r18, r20
 cd2:	25 2b       	or	r18, r21
 cd4:	21 f4       	brne	.+8      	; 0xcde <__fp_cmp+0x3e>
 cd6:	08 95       	ret
 cd8:	0a 26       	eor	r0, r26
 cda:	09 f4       	brne	.+2      	; 0xcde <__fp_cmp+0x3e>
 cdc:	a1 40       	sbci	r26, 0x01	; 1
 cde:	a6 95       	lsr	r26
 ce0:	8f ef       	ldi	r24, 0xFF	; 255
 ce2:	81 1d       	adc	r24, r1
 ce4:	81 1d       	adc	r24, r1
 ce6:	08 95       	ret

00000ce8 <memcpy_P>:
 ce8:	fb 01       	movw	r30, r22
 cea:	dc 01       	movw	r26, r24
 cec:	02 c0       	rjmp	.+4      	; 0xcf2 <memcpy_P+0xa>
 cee:	05 90       	lpm	r0, Z+
 cf0:	0d 92       	st	X+, r0
 cf2:	41 50       	subi	r20, 0x01	; 1
 cf4:	50 40       	sbci	r21, 0x00	; 0
 cf6:	d8 f7       	brcc	.-10     	; 0xcee <memcpy_P+0x6>
 cf8:	08 95       	ret

00000cfa <_exit>:
 cfa:	f8 94       	cli

00000cfc <__stop_program>:
 cfc:	ff cf       	rjmp	.-2      	; 0xcfc <__stop_program>
